target datalayout = "e-m:e-p270:32:32-p271:32:32-p272:64:64-i64:64-i128:128-f80:128-n8:16:32:64-S128"
target triple = "x86_64-pc-linux-gnu"

%struct.TCGOp = type { i32, i32, %union.anon, [2 x i32], [0 x i64] }
%union.anon = type { %struct.QTailQLink }
%struct.QTailQLink = type { ptr, ptr }

@tcg_ctx = external thread_local global ptr, align 8

; Function Attrs: inlinehint nounwind sspstrong uwtable
define internal ptr @tcgv_i32_temp(ptr noundef %0) #4 {
  %2 = alloca ptr, align 8
  store ptr %0, ptr %2, align 8
  %3 = call align 8 ptr @llvm.threadlocal.address.p0(ptr align 8 @tcg_ctx)
  %4 = load ptr, ptr %3, align 8
  %5 = load ptr, ptr %2, align 8
  %6 = ptrtoint ptr %5 to i64
  %7 = getelementptr inbounds nuw i8, ptr %4, i64 %6
  ret ptr %7
}

; Function Attrs: inlinehint nounwind sspstrong uwtable
define internal i64 @temp_arg(ptr noundef %0) #4 {
  %2 = alloca ptr, align 8
  store ptr %0, ptr %2, align 8
  %3 = load ptr, ptr %2, align 8
  %4 = ptrtoint ptr %3 to i64
  ret i64 %4
}

; Function Attrs: inlinehint nounwind sspstrong uwtable
define internal ptr @tcgv_i64_temp(ptr noundef %0) #4 {
  %2 = alloca ptr, align 8
  store ptr %0, ptr %2, align 8
  %3 = load ptr, ptr %2, align 8
  %4 = call ptr @tcgv_i32_temp(ptr noundef %3)
  ret ptr %4
}

; Function Attrs: nounwind sspstrong uwtable
define internal void @tcg_gen_op2_i64(i32 noundef %0, ptr noundef %1, ptr noundef %2) #3 {
  %4 = alloca i32, align 4
  %5 = alloca ptr, align 8
  %6 = alloca ptr, align 8
  store i32 %0, ptr %4, align 4
  store ptr %1, ptr %5, align 8
  store ptr %2, ptr %6, align 8
  %7 = load i32, ptr %4, align 4
  %8 = load ptr, ptr %5, align 8
  %9 = call i64 @tcgv_i64_arg(ptr noundef %8)
  %10 = load ptr, ptr %6, align 8
  %11 = call i64 @tcgv_i64_arg(ptr noundef %10)
  %12 = call ptr @tcg_gen_op2(i32 noundef %7, i32 noundef 1, i64 noundef %9, i64 noundef %11)
  ret void
}

; Function Attrs: noinline nounwind sspstrong uwtable
define dso_local ptr @tcg_gen_op5(i32 noundef %0, i32 noundef %1, i64 noundef %2, i64 noundef %3, i64 noundef %4, i64 noundef %5, i64 noundef %6) #0 {
  %8 = alloca i32, align 4
  %9 = alloca i32, align 4
  %10 = alloca i64, align 8
  %11 = alloca i64, align 8
  %12 = alloca i64, align 8
  %13 = alloca i64, align 8
  %14 = alloca i64, align 8
  %15 = alloca ptr, align 8
  store i32 %0, ptr %8, align 4
  store i32 %1, ptr %9, align 4
  store i64 %2, ptr %10, align 8
  store i64 %3, ptr %11, align 8
  store i64 %4, ptr %12, align 8
  store i64 %5, ptr %13, align 8
  store i64 %6, ptr %14, align 8
  call void @llvm.lifetime.start.p0(i64 8, ptr %15) #7
  %16 = load i32, ptr %8, align 4
  %17 = call ptr @tcg_emit_op(i32 noundef %16, i32 noundef 5)
  store ptr %17, ptr %15, align 8
  %18 = load i32, ptr %9, align 4
  %19 = load ptr, ptr %15, align 8
  %20 = load i32, ptr %19, align 8
  %21 = and i32 %18, 255
  %22 = shl i32 %21, 16
  %23 = and i32 %20, -16711681
  %24 = or i32 %23, %22
  store i32 %24, ptr %19, align 8
  %25 = load i64, ptr %10, align 8
  %26 = load ptr, ptr %15, align 8
  %27 = getelementptr inbounds nuw %struct.TCGOp, ptr %26, i32 0, i32 4
  %28 = getelementptr inbounds [0 x i64], ptr %27, i64 0, i64 0
  store i64 %25, ptr %28, align 8
  %29 = load i64, ptr %11, align 8
  %30 = load ptr, ptr %15, align 8
  %31 = getelementptr inbounds nuw %struct.TCGOp, ptr %30, i32 0, i32 4
  %32 = getelementptr inbounds [0 x i64], ptr %31, i64 0, i64 1
  store i64 %29, ptr %32, align 8
  %33 = load i64, ptr %12, align 8
  %34 = load ptr, ptr %15, align 8
  %35 = getelementptr inbounds nuw %struct.TCGOp, ptr %34, i32 0, i32 4
  %36 = getelementptr inbounds [0 x i64], ptr %35, i64 0, i64 2
  store i64 %33, ptr %36, align 8
  %37 = load i64, ptr %13, align 8
  %38 = load ptr, ptr %15, align 8
  %39 = getelementptr inbounds nuw %struct.TCGOp, ptr %38, i32 0, i32 4
  %40 = getelementptr inbounds [0 x i64], ptr %39, i64 0, i64 3
  store i64 %37, ptr %40, align 8
  %41 = load i64, ptr %14, align 8
  %42 = load ptr, ptr %15, align 8
  %43 = getelementptr inbounds nuw %struct.TCGOp, ptr %42, i32 0, i32 4
  %44 = getelementptr inbounds [0 x i64], ptr %43, i64 0, i64 4
  store i64 %41, ptr %44, align 8
  %45 = load ptr, ptr %15, align 8
  call void @llvm.lifetime.end.p0(i64 8, ptr %15) #7
  ret ptr %45
}

; Function Attrs: inlinehint nounwind sspstrong uwtable
define internal i64 @tcgv_i64_arg(ptr noundef %0) #4 {
  %2 = alloca ptr, align 8
  store ptr %0, ptr %2, align 8
  %3 = load ptr, ptr %2, align 8
  %4 = call ptr @tcgv_i64_temp(ptr noundef %3)
  %5 = call i64 @temp_arg(ptr noundef %4)
  ret i64 %5
}

; Function Attrs: nounwind sspstrong uwtable
define dso_local void @tcg_gen_ext8u_i64(ptr noundef %0, ptr noundef %1) #3 {
  %3 = alloca ptr, align 8
  %4 = alloca ptr, align 8
  store ptr %0, ptr %3, align 8
  store ptr %1, ptr %4, align 8
  %5 = load ptr, ptr %3, align 8
  %6 = load ptr, ptr %4, align 8
  call void @tcg_gen_op2_i64(i32 noundef 107, ptr noundef %5, ptr noundef %6)
  ret void
}

; Function Attrs: nounwind sspstrong uwtable
define dso_local void @tcg_gen_ext16u_i64(ptr noundef %0, ptr noundef %1) #3 {
  %3 = alloca ptr, align 8
  %4 = alloca ptr, align 8
  store ptr %0, ptr %3, align 8
  store ptr %1, ptr %4, align 8
  %5 = load ptr, ptr %3, align 8
  %6 = load ptr, ptr %4, align 8
  call void @tcg_gen_op2_i64(i32 noundef 108, ptr noundef %5, ptr noundef %6)
  ret void
}

; Function Attrs: nounwind sspstrong uwtable
define dso_local void @tcg_gen_ext32u_i64(ptr noundef %0, ptr noundef %1) #3 {
  %3 = alloca ptr, align 8
  %4 = alloca ptr, align 8
  store ptr %0, ptr %3, align 8
  store ptr %1, ptr %4, align 8
  %5 = load ptr, ptr %3, align 8
  %6 = load ptr, ptr %4, align 8
  call void @tcg_gen_op2_i64(i32 noundef 109, ptr noundef %5, ptr noundef %6)
  ret void
}

; Function Attrs: nounwind sspstrong uwtable
define internal void @tcg_gen_op5ii_i64(i32 noundef %0, ptr noundef %1, ptr noundef %2, ptr noundef %3, i64 noundef %4, i64 noundef %5) #3 {
  %7 = alloca i32, align 4
  %8 = alloca ptr, align 8
  %9 = alloca ptr, align 8
  %10 = alloca ptr, align 8
  %11 = alloca i64, align 8
  %12 = alloca i64, align 8
  store i32 %0, ptr %7, align 4
  store ptr %1, ptr %8, align 8
  store ptr %2, ptr %9, align 8
  store ptr %3, ptr %10, align 8
  store i64 %4, ptr %11, align 8
  store i64 %5, ptr %12, align 8
  %13 = load i32, ptr %7, align 4
  %14 = load ptr, ptr %8, align 8
  %15 = call i64 @tcgv_i64_arg(ptr noundef %14)
  %16 = load ptr, ptr %9, align 8
  %17 = call i64 @tcgv_i64_arg(ptr noundef %16)
  %18 = load ptr, ptr %10, align 8
  %19 = call i64 @tcgv_i64_arg(ptr noundef %18)
  %20 = load i64, ptr %11, align 8
  %21 = load i64, ptr %12, align 8
  %22 = call ptr @tcg_gen_op5(i32 noundef %13, i32 noundef 1, i64 noundef %15, i64 noundef %17, i64 noundef %19, i64 noundef %20, i64 noundef %21)
  ret void
}

; Function Attrs: nounwind sspstrong uwtable
define dso_local void @tcg_gen_deposit_z_i64(ptr noundef %0, ptr noundef %1, i32 noundef %2, i32 noundef %3) #3 {
  %5 = alloca ptr, align 8
  %6 = alloca ptr, align 8
  %7 = alloca i32, align 4
  %8 = alloca i32, align 4
  %9 = alloca ptr, align 8
  store ptr %0, ptr %5, align 8
  store ptr %1, ptr %6, align 8
  store i32 %2, ptr %7, align 4
  store i32 %3, ptr %8, align 4
  br label %10

10:                                               ; preds = %4
  %11 = load i32, ptr %7, align 4
  %12 = icmp ult i32 %11, 64
  br i1 %12, label %14, label %13

13:                                               ; preds = %10
  unreachable

14:                                               ; preds = %10
  br label %15

15:                                               ; preds = %14
  br label %16

16:                                               ; preds = %15
  %17 = load i32, ptr %8, align 4
  %18 = icmp ugt i32 %17, 0
  br i1 %18, label %20, label %19

19:                                               ; preds = %16
  unreachable

20:                                               ; preds = %16
  br label %21

21:                                               ; preds = %20
  br label %22

22:                                               ; preds = %21
  %23 = load i32, ptr %8, align 4
  %24 = icmp ule i32 %23, 64
  br i1 %24, label %26, label %25

25:                                               ; preds = %22
  unreachable

26:                                               ; preds = %22
  br label %27

27:                                               ; preds = %26
  br label %28

28:                                               ; preds = %27
  %29 = load i32, ptr %7, align 4
  %30 = load i32, ptr %8, align 4
  %31 = add i32 %29, %30
  %32 = icmp ule i32 %31, 64
  br i1 %32, label %34, label %33

33:                                               ; preds = %28
  unreachable

34:                                               ; preds = %28
  br label %35

35:                                               ; preds = %34
  %36 = load i32, ptr %7, align 4
  %37 = load i32, ptr %8, align 4
  %38 = add i32 %36, %37
  %39 = icmp eq i32 %38, 64
  br i1 %39, label %40, label %45

40:                                               ; preds = %35
  %41 = load ptr, ptr %5, align 8
  %42 = load ptr, ptr %6, align 8
  %43 = load i32, ptr %7, align 4
  %44 = zext i32 %43 to i64
  call void @tcg_gen_shli_i64(ptr noundef %41, ptr noundef %42, i64 noundef %44)
  br label %134

45:                                               ; preds = %35
  %46 = load i32, ptr %7, align 4
  %47 = icmp eq i32 %46, 0
  br i1 %47, label %48, label %55

48:                                               ; preds = %45
  %49 = load ptr, ptr %5, align 8
  %50 = load ptr, ptr %6, align 8
  %51 = load i32, ptr %8, align 4
  %52 = zext i32 %51 to i64
  %53 = shl i64 1, %52
  %54 = sub i64 %53, 1
  call void @tcg_gen_andi_i64(ptr noundef %49, ptr noundef %50, i64 noundef %54)
  br label %133

55:                                               ; preds = %45
  %56 = load i32, ptr %7, align 4
  %57 = icmp eq i32 %56, 0
  br i1 %57, label %58, label %73

58:                                               ; preds = %55
  %59 = load i32, ptr %8, align 4
  %60 = icmp eq i32 %59, 8
  br i1 %60, label %64, label %61

61:                                               ; preds = %58
  %62 = load i32, ptr %8, align 4
  %63 = icmp eq i32 %62, 16
  br i1 %63, label %64, label %73

64:                                               ; preds = %61, %58
  call void @llvm.lifetime.start.p0(i64 8, ptr %9) #7
  %65 = call ptr @tcg_constant_i64(i64 noundef 0)
  store ptr %65, ptr %9, align 8
  %66 = load ptr, ptr %5, align 8
  %67 = load ptr, ptr %9, align 8
  %68 = load ptr, ptr %6, align 8
  %69 = load i32, ptr %7, align 4
  %70 = zext i32 %69 to i64
  %71 = load i32, ptr %8, align 4
  %72 = zext i32 %71 to i64
  call void @tcg_gen_op5ii_i64(i32 noundef 95, ptr noundef %66, ptr noundef %67, ptr noundef %68, i64 noundef %70, i64 noundef %72)
  call void @llvm.lifetime.end.p0(i64 8, ptr %9) #7
  br label %132

73:                                               ; preds = %61, %55
  %74 = load i32, ptr %8, align 4
  switch i32 %74, label %96 [
    i32 32, label %75
    i32 16, label %82
    i32 8, label %89
  ]

75:                                               ; preds = %73
  %76 = load ptr, ptr %5, align 8
  %77 = load ptr, ptr %6, align 8
  call void @tcg_gen_ext32u_i64(ptr noundef %76, ptr noundef %77)
  %78 = load ptr, ptr %5, align 8
  %79 = load ptr, ptr %5, align 8
  %80 = load i32, ptr %7, align 4
  %81 = zext i32 %80 to i64
  call void @tcg_gen_shli_i64(ptr noundef %78, ptr noundef %79, i64 noundef %81)
  br label %134

82:                                               ; preds = %73
  %83 = load ptr, ptr %5, align 8
  %84 = load ptr, ptr %6, align 8
  call void @tcg_gen_ext16u_i64(ptr noundef %83, ptr noundef %84)
  %85 = load ptr, ptr %5, align 8
  %86 = load ptr, ptr %5, align 8
  %87 = load i32, ptr %7, align 4
  %88 = zext i32 %87 to i64
  call void @tcg_gen_shli_i64(ptr noundef %85, ptr noundef %86, i64 noundef %88)
  br label %134

89:                                               ; preds = %73
  %90 = load ptr, ptr %5, align 8
  %91 = load ptr, ptr %6, align 8
  call void @tcg_gen_ext8u_i64(ptr noundef %90, ptr noundef %91)
  %92 = load ptr, ptr %5, align 8
  %93 = load ptr, ptr %5, align 8
  %94 = load i32, ptr %7, align 4
  %95 = zext i32 %94 to i64
  call void @tcg_gen_shli_i64(ptr noundef %92, ptr noundef %93, i64 noundef %95)
  br label %134

96:                                               ; preds = %73
  %97 = load i32, ptr %7, align 4
  %98 = load i32, ptr %8, align 4
  %99 = add i32 %97, %98
  switch i32 %99, label %121 [
    i32 32, label %100
    i32 16, label %107
    i32 8, label %114
  ]

100:                                              ; preds = %96
  %101 = load ptr, ptr %5, align 8
  %102 = load ptr, ptr %6, align 8
  %103 = load i32, ptr %7, align 4
  %104 = zext i32 %103 to i64
  call void @tcg_gen_shli_i64(ptr noundef %101, ptr noundef %102, i64 noundef %104)
  %105 = load ptr, ptr %5, align 8
  %106 = load ptr, ptr %5, align 8
  call void @tcg_gen_ext32u_i64(ptr noundef %105, ptr noundef %106)
  br label %134

107:                                              ; preds = %96
  %108 = load ptr, ptr %5, align 8
  %109 = load ptr, ptr %6, align 8
  %110 = load i32, ptr %7, align 4
  %111 = zext i32 %110 to i64
  call void @tcg_gen_shli_i64(ptr noundef %108, ptr noundef %109, i64 noundef %111)
  %112 = load ptr, ptr %5, align 8
  %113 = load ptr, ptr %5, align 8
  call void @tcg_gen_ext16u_i64(ptr noundef %112, ptr noundef %113)
  br label %134

114:                                              ; preds = %96
  %115 = load ptr, ptr %5, align 8
  %116 = load ptr, ptr %6, align 8
  %117 = load i32, ptr %7, align 4
  %118 = zext i32 %117 to i64
  call void @tcg_gen_shli_i64(ptr noundef %115, ptr noundef %116, i64 noundef %118)
  %119 = load ptr, ptr %5, align 8
  %120 = load ptr, ptr %5, align 8
  call void @tcg_gen_ext8u_i64(ptr noundef %119, ptr noundef %120)
  br label %134

121:                                              ; preds = %96
  %122 = load ptr, ptr %5, align 8
  %123 = load ptr, ptr %6, align 8
  %124 = load i32, ptr %8, align 4
  %125 = zext i32 %124 to i64
  %126 = shl i64 1, %125
  %127 = sub i64 %126, 1
  call void @tcg_gen_andi_i64(ptr noundef %122, ptr noundef %123, i64 noundef %127)
  %128 = load ptr, ptr %5, align 8
  %129 = load ptr, ptr %5, align 8
  %130 = load i32, ptr %7, align 4
  %131 = zext i32 %130 to i64
  call void @tcg_gen_shli_i64(ptr noundef %128, ptr noundef %129, i64 noundef %131)
  br label %132

132:                                              ; preds = %121, %64
  br label %133

133:                                              ; preds = %132, %48
  br label %134

134:                                              ; preds = %75, %82, %89, %100, %107, %114, %133, %40
  ret void
}