; Function Attrs: nounwind sspstrong uwtable
define dso_local void @tcg_gen_deposit_z_i64(ptr noundef %0, ptr noundef %1, i32 noundef %2, i32 noundef %3) local_unnamed_addr #2 {
  %5 = icmp samesign ult i32 %2, 64
  tail call void @llvm.assume(i1 %5)
  %6 = icmp ne i32 %3, 0
  tail call void @llvm.assume(i1 %6)
  %7 = add nuw nsw i32 %3, %2
  %8 = icmp samesign ult i32 %7, 65
  tail call void @llvm.assume(i1 %8)
  %9 = icmp eq i32 %7, 64
  %10 = icmp eq i32 %2, 0
  br i1 %9, label %11, label %39

11:                                               ; preds = %4
  br i1 %10, label %12, label %24

12:                                               ; preds = %11
  %13 = icmp eq ptr %0, %1
  br i1 %13, label %tcg_gen_shli_i64.exit, label %14

14:                                               ; preds = %12
  %15 = tail call align 8 ptr @llvm.threadlocal.address.p0(ptr align 8 @tcg_ctx)
  %16 = load ptr, ptr %15, align 8
  %17 = ptrtoint ptr %0 to i64
  %18 = getelementptr inbounds nuw i8, ptr %16, i64 %17
  %19 = ptrtoint ptr %18 to i64
  %20 = ptrtoint ptr %1 to i64
  %21 = getelementptr inbounds nuw i8, ptr %16, i64 %20
  %22 = ptrtoint ptr %21 to i64
  %23 = tail call ptr @tcg_gen_op2(i32 noundef 63, i32 noundef 1, i64 noundef %19, i64 noundef %22)
  br label %tcg_gen_shli_i64.exit

24:                                               ; preds = %11
  %25 = zext nneg i32 %2 to i64
  %26 = tail call ptr @tcg_constant_i64(i64 noundef %25) #6
  %27 = tail call align 8 ptr @llvm.threadlocal.address.p0(ptr align 8 @tcg_ctx)
  %28 = load ptr, ptr %27, align 8
  %29 = ptrtoint ptr %0 to i64
  %30 = getelementptr inbounds nuw i8, ptr %28, i64 %29
  %31 = ptrtoint ptr %30 to i64
  %32 = ptrtoint ptr %1 to i64
  %33 = getelementptr inbounds nuw i8, ptr %28, i64 %32
  %34 = ptrtoint ptr %33 to i64
  %35 = ptrtoint ptr %26 to i64
  %36 = getelementptr inbounds nuw i8, ptr %28, i64 %35
  %37 = ptrtoint ptr %36 to i64
  %38 = tail call ptr @tcg_gen_op3(i32 noundef 90, i32 noundef 1, i64 noundef %31, i64 noundef %34, i64 noundef %37)
  br label %tcg_gen_shli_i64.exit

39:                                               ; preds = %4
  br i1 %10, label %40, label %43

40:                                               ; preds = %39
  %41 = zext nneg i32 %3 to i64
  %notmask62 = shl nsw i64 -1, %41
  %42 = xor i64 %notmask62, -1
  tail call void @tcg_gen_andi_i64(ptr noundef %0, ptr noundef %1, i64 noundef %42)
  br label %tcg_gen_shli_i64.exit

43:                                               ; preds = %39
  switch i32 %3, label %98 [
    i32 32, label %tcg_gen_shli_i64.exit64
    i32 16, label %tcg_gen_shli_i64.exit66
    i32 8, label %tcg_gen_shli_i64.exit68
  ]

tcg_gen_shli_i64.exit64:                          ; preds = %43
  %44 = tail call align 8 ptr @llvm.threadlocal.address.p0(ptr align 8 @tcg_ctx)
  %45 = load ptr, ptr %44, align 8
  %46 = ptrtoint ptr %0 to i64
  %47 = getelementptr inbounds nuw i8, ptr %45, i64 %46
  %48 = ptrtoint ptr %47 to i64
  %49 = ptrtoint ptr %1 to i64
  %50 = getelementptr inbounds nuw i8, ptr %45, i64 %49
  %51 = ptrtoint ptr %50 to i64
  %52 = tail call ptr @tcg_gen_op2(i32 noundef 109, i32 noundef 1, i64 noundef %48, i64 noundef %51)
  %53 = zext nneg i32 %2 to i64
  %54 = tail call ptr @tcg_constant_i64(i64 noundef %53) #6
  %55 = load ptr, ptr %44, align 8
  %56 = getelementptr inbounds nuw i8, ptr %55, i64 %46
  %57 = ptrtoint ptr %56 to i64
  %58 = ptrtoint ptr %54 to i64
  %59 = getelementptr inbounds nuw i8, ptr %55, i64 %58
  %60 = ptrtoint ptr %59 to i64
  %61 = tail call ptr @tcg_gen_op3(i32 noundef 90, i32 noundef 1, i64 noundef %57, i64 noundef %57, i64 noundef %60)
  br label %tcg_gen_shli_i64.exit

tcg_gen_shli_i64.exit66:                          ; preds = %43
  %62 = tail call align 8 ptr @llvm.threadlocal.address.p0(ptr align 8 @tcg_ctx)
  %63 = load ptr, ptr %62, align 8
  %64 = ptrtoint ptr %0 to i64
  %65 = getelementptr inbounds nuw i8, ptr %63, i64 %64
  %66 = ptrtoint ptr %65 to i64
  %67 = ptrtoint ptr %1 to i64
  %68 = getelementptr inbounds nuw i8, ptr %63, i64 %67
  %69 = ptrtoint ptr %68 to i64
  %70 = tail call ptr @tcg_gen_op2(i32 noundef 108, i32 noundef 1, i64 noundef %66, i64 noundef %69)
  %71 = zext nneg i32 %2 to i64
  %72 = tail call ptr @tcg_constant_i64(i64 noundef %71) #6
  %73 = load ptr, ptr %62, align 8
  %74 = getelementptr inbounds nuw i8, ptr %73, i64 %64
  %75 = ptrtoint ptr %74 to i64
  %76 = ptrtoint ptr %72 to i64
  %77 = getelementptr inbounds nuw i8, ptr %73, i64 %76
  %78 = ptrtoint ptr %77 to i64
  %79 = tail call ptr @tcg_gen_op3(i32 noundef 90, i32 noundef 1, i64 noundef %75, i64 noundef %75, i64 noundef %78)
  br label %tcg_gen_shli_i64.exit

tcg_gen_shli_i64.exit68:                          ; preds = %43
  %80 = tail call align 8 ptr @llvm.threadlocal.address.p0(ptr align 8 @tcg_ctx)
  %81 = load ptr, ptr %80, align 8
  %82 = ptrtoint ptr %0 to i64
  %83 = getelementptr inbounds nuw i8, ptr %81, i64 %82
  %84 = ptrtoint ptr %83 to i64
  %85 = ptrtoint ptr %1 to i64
  %86 = getelementptr inbounds nuw i8, ptr %81, i64 %85
  %87 = ptrtoint ptr %86 to i64
  %88 = tail call ptr @tcg_gen_op2(i32 noundef 107, i32 noundef 1, i64 noundef %84, i64 noundef %87)
  %89 = zext nneg i32 %2 to i64
  %90 = tail call ptr @tcg_constant_i64(i64 noundef %89) #6
  %91 = load ptr, ptr %80, align 8
  %92 = getelementptr inbounds nuw i8, ptr %91, i64 %82
  %93 = ptrtoint ptr %92 to i64
  %94 = ptrtoint ptr %90 to i64
  %95 = getelementptr inbounds nuw i8, ptr %91, i64 %94
  %96 = ptrtoint ptr %95 to i64
  %97 = tail call ptr @tcg_gen_op3(i32 noundef 90, i32 noundef 1, i64 noundef %93, i64 noundef %93, i64 noundef %96)
  br label %tcg_gen_shli_i64.exit

98:                                               ; preds = %43
  switch i32 %7, label %123 [
    i32 32, label %99
    i32 16, label %107
    i32 8, label %115
  ]

99:                                               ; preds = %98
  %100 = zext nneg i32 %2 to i64
  tail call void @tcg_gen_shli_i64(ptr noundef %0, ptr noundef %1, i64 noundef %100)
  %101 = tail call align 8 ptr @llvm.threadlocal.address.p0(ptr align 8 @tcg_ctx)
  %102 = load ptr, ptr %101, align 8
  %103 = ptrtoint ptr %0 to i64
  %104 = getelementptr inbounds nuw i8, ptr %102, i64 %103
  %105 = ptrtoint ptr %104 to i64
  %106 = tail call ptr @tcg_gen_op2(i32 noundef 109, i32 noundef 1, i64 noundef %105, i64 noundef %105)
  br label %tcg_gen_shli_i64.exit

107:                                              ; preds = %98
  %108 = zext nneg i32 %2 to i64
  tail call void @tcg_gen_shli_i64(ptr noundef %0, ptr noundef %1, i64 noundef %108)
  %109 = tail call align 8 ptr @llvm.threadlocal.address.p0(ptr align 8 @tcg_ctx)
  %110 = load ptr, ptr %109, align 8
  %111 = ptrtoint ptr %0 to i64
  %112 = getelementptr inbounds nuw i8, ptr %110, i64 %111
  %113 = ptrtoint ptr %112 to i64
  %114 = tail call ptr @tcg_gen_op2(i32 noundef 108, i32 noundef 1, i64 noundef %113, i64 noundef %113)
  br label %tcg_gen_shli_i64.exit

115:                                              ; preds = %98
  %116 = zext nneg i32 %2 to i64
  tail call void @tcg_gen_shli_i64(ptr noundef %0, ptr noundef %1, i64 noundef %116)
  %117 = tail call align 8 ptr @llvm.threadlocal.address.p0(ptr align 8 @tcg_ctx)
  %118 = load ptr, ptr %117, align 8
  %119 = ptrtoint ptr %0 to i64
  %120 = getelementptr inbounds nuw i8, ptr %118, i64 %119
  %121 = ptrtoint ptr %120 to i64
  %122 = tail call ptr @tcg_gen_op2(i32 noundef 107, i32 noundef 1, i64 noundef %121, i64 noundef %121)
  br label %tcg_gen_shli_i64.exit

123:                                              ; preds = %98
  %124 = zext nneg i32 %3 to i64
  %notmask = shl nsw i64 -1, %124
  %125 = xor i64 %notmask, -1
  tail call void @tcg_gen_andi_i64(ptr noundef %0, ptr noundef %1, i64 noundef %125)
  %126 = zext nneg i32 %2 to i64
  tail call void @tcg_gen_shli_i64(ptr noundef %0, ptr noundef %0, i64 noundef %126)
  br label %tcg_gen_shli_i64.exit

tcg_gen_shli_i64.exit:                            ; preds = %24, %14, %12, %40, %123, %115, %107, %99, %tcg_gen_shli_i64.exit68, %tcg_gen_shli_i64.exit66, %tcg_gen_shli_i64.exit64
  ret void
}